target datalayout = "e-m:e-p270:32:32-p271:32:32-p272:64:64-i64:64-i128:128-f80:128-n8:16:32:64-S128"
target triple = "x86_64-pc-linux-gnu"

; Function Attrs: nounwind uwtable
define dso_local void @php_output_handler_free(ptr noundef %0) #0 {
  %2 = alloca ptr, align 8
  store ptr %0, ptr %2, align 8, !tbaa !27
  %3 = load ptr, ptr %2, align 8, !tbaa !27
  %4 = load ptr, ptr %3, align 8, !tbaa !55
  %5 = icmp ne ptr %4, null
  br i1 %5, label %6, label %12

6:                                                ; preds = %1
  %7 = load ptr, ptr %2, align 8, !tbaa !27
  %8 = load ptr, ptr %7, align 8, !tbaa !55
  call void @php_output_handler_dtor(ptr noundef %8)
  %9 = load ptr, ptr %2, align 8, !tbaa !27
  %10 = load ptr, ptr %9, align 8, !tbaa !55
  call void @_efree(ptr noundef %10)
  %11 = load ptr, ptr %2, align 8, !tbaa !27
  store ptr null, ptr %11, align 8, !tbaa !55
  br label %12

12:                                               ; preds = %6, %1
  ret void
}