; Function Attrs: nounwind uwtable
define dso_local void @php_output_handler_free(ptr noundef captures(none) %0) local_unnamed_addr #0 {
  %2 = load ptr, ptr %0, align 8, !tbaa !18
  %.not = icmp eq ptr %2, null
  br i1 %.not, label %5, label %3

3:                                                ; preds = %1
  tail call void @php_output_handler_dtor(ptr noundef nonnull %2)
  %4 = load ptr, ptr %0, align 8, !tbaa !18
  tail call void @_efree(ptr noundef %4) #22
  store ptr null, ptr %0, align 8, !tbaa !18
  br label %5

5:                                                ; preds = %3, %1
  ret void
}